target datalayout = "e-m:e-p270:32:32-p271:32:32-p272:64:64-i64:64-i128:128-f80:128-n8:16:32:64-S128"
target triple = "x86_64-pc-linux-gnu"

%struct.ue_key_entries_t = type { i32, [32 x %struct.key_entry_t] }
%struct.key_entry_t = type { i32, ptr, [16 x i8], i8, i32 }

@pdcp_security_key_hash = internal global ptr null, align 8
@.str = private unnamed_addr constant [24 x i8] c"%s: (RRC Ciphering Key)\00", align 1

; Function Attrs: null_pointer_is_valid sspstrong uwtable
define hidden void @set_pdcp_nr_rrc_ciphering_key(i16 noundef zeroext %0, ptr noundef %1, i32 noundef %2) #0 {
  %4 = alloca i16, align 2
  %5 = alloca ptr, align 8
  %6 = alloca i32, align 4
  %7 = alloca ptr, align 8
  %8 = alloca ptr, align 8
  %9 = alloca i32, align 4
  %10 = alloca ptr, align 8
  store i16 %0, ptr %4, align 2
  store ptr %1, ptr %5, align 8
  store i32 %2, ptr %6, align 4
  call void @llvm.lifetime.start.p0(i64 8, ptr %7) #15
  store ptr null, ptr %7, align 8
  call void @llvm.lifetime.start.p0(i64 8, ptr %8) #15
  %11 = load ptr, ptr @pdcp_security_key_hash, align 8
  %12 = load i16, ptr %4, align 2
  %13 = zext i16 %12 to i32
  %14 = zext i32 %13 to i64
  %15 = inttoptr i64 %14 to ptr
  %16 = call ptr @wmem_map_lookup(ptr noundef %11, ptr noundef %15)
  store ptr %16, ptr %8, align 8
  %17 = load ptr, ptr %8, align 8
  %18 = icmp eq ptr %17, null
  br i1 %18, label %19, label %29

19:                                               ; preds = %3
  %20 = call ptr @wmem_file_scope()
  %21 = call noalias ptr @wmem_alloc0(ptr noundef %20, i64 noundef 1288) #16
  store ptr %21, ptr %8, align 8
  %22 = load ptr, ptr @pdcp_security_key_hash, align 8
  %23 = load i16, ptr %4, align 2
  %24 = zext i16 %23 to i32
  %25 = zext i32 %24 to i64
  %26 = inttoptr i64 %25 to ptr
  %27 = load ptr, ptr %8, align 8
  %28 = call ptr @wmem_map_insert(ptr noundef %22, ptr noundef %26, ptr noundef %27)
  br label %29

29:                                               ; preds = %19, %3
  %30 = load ptr, ptr %8, align 8
  %31 = getelementptr inbounds nuw %struct.ue_key_entries_t, ptr %30, i32 0, i32 0
  %32 = load i32, ptr %31, align 8
  %33 = icmp eq i32 %32, 32
  br i1 %33, label %34, label %35

34:                                               ; preds = %29
  store i32 1, ptr %9, align 4
  br label %67

35:                                               ; preds = %29
  call void @llvm.lifetime.start.p0(i64 8, ptr %10) #15
  %36 = load ptr, ptr %8, align 8
  %37 = getelementptr inbounds nuw %struct.ue_key_entries_t, ptr %36, i32 0, i32 1
  %38 = load ptr, ptr %8, align 8
  %39 = getelementptr inbounds nuw %struct.ue_key_entries_t, ptr %38, i32 0, i32 0
  %40 = load i32, ptr %39, align 8
  %41 = add i32 %40, 1
  store i32 %41, ptr %39, align 8
  %42 = zext i32 %40 to i64
  %43 = getelementptr [32 x %struct.key_entry_t], ptr %37, i64 0, i64 %42
  store ptr %43, ptr %10, align 8
  %44 = load ptr, ptr %10, align 8
  %45 = getelementptr inbounds nuw %struct.key_entry_t, ptr %44, i32 0, i32 0
  store i32 0, ptr %45, align 8
  %46 = load ptr, ptr %5, align 8
  %47 = call noalias ptr @g_strdup(ptr noundef %46)
  %48 = load ptr, ptr %10, align 8
  %49 = getelementptr inbounds nuw %struct.key_entry_t, ptr %48, i32 0, i32 1
  store ptr %47, ptr %49, align 8
  %50 = load i32, ptr %6, align 4
  %51 = load ptr, ptr %10, align 8
  %52 = getelementptr inbounds nuw %struct.key_entry_t, ptr %51, i32 0, i32 4
  store i32 %50, ptr %52, align 4
  %53 = load ptr, ptr %10, align 8
  %54 = getelementptr inbounds nuw %struct.key_entry_t, ptr %53, i32 0, i32 1
  %55 = load ptr, ptr %54, align 8
  %56 = load ptr, ptr %10, align 8
  %57 = getelementptr inbounds nuw %struct.key_entry_t, ptr %56, i32 0, i32 2
  %58 = getelementptr inbounds [16 x i8], ptr %57, i64 0, i64 0
  %59 = load ptr, ptr %10, align 8
  %60 = getelementptr inbounds nuw %struct.key_entry_t, ptr %59, i32 0, i32 3
  call void @update_key_from_string(ptr noundef %55, ptr noundef %58, ptr noundef %60, ptr noundef %7)
  %61 = load ptr, ptr %7, align 8
  %62 = icmp ne ptr %61, null
  br i1 %62, label %63, label %66

63:                                               ; preds = %35
  %64 = load ptr, ptr %7, align 8
  call void (ptr, ...) @report_failure(ptr noundef @.str, ptr noundef %64)
  %65 = load ptr, ptr %7, align 8
  call void @g_free(ptr noundef %65)
  br label %66

66:                                               ; preds = %63, %35
  call void @llvm.lifetime.end.p0(i64 8, ptr %10) #15
  store i32 0, ptr %9, align 4
  br label %67

67:                                               ; preds = %66, %34
  call void @llvm.lifetime.end.p0(i64 8, ptr %8) #15
  call void @llvm.lifetime.end.p0(i64 8, ptr %7) #15
  %68 = load i32, ptr %9, align 4
  switch i32 %68, label %70 [
    i32 0, label %69
    i32 1, label %69
  ]

69:                                               ; preds = %67, %67
  ret void

70:                                               ; preds = %67
  unreachable
}